target datalayout = "e-m:e-p270:32:32-p271:32:32-p272:64:64-i64:64-i128:128-f80:128-n8:16:32:64-S128"
target triple = "x86_64-pc-linux-gnu"

%struct.Cec_ParCor_t_ = type { i32, i32, i32, i32, i32, i32, i32, i32, i32, i32, i32, i32, i32, i32, i32, i32, i32, i32, i32, i32, ptr, ptr }
%struct.timespec = type { i64, i64 }
%struct.Par_ScorrThData_t_ = type { %struct.Cec_ParCor_t_, ptr, ptr, i32, i32, i8 }

; Function Attrs: nounwind uwtable
define ptr @Ssw_GiaWorkerThread(ptr noundef %0) #0 {
  %2 = alloca ptr, align 8
  %3 = alloca %struct.timespec, align 8
  %4 = alloca ptr, align 8
  %5 = alloca i8, align 1
  %6 = alloca i8, align 1
  store ptr %0, ptr %2, align 8, !tbaa !28
  call void @llvm.lifetime.start.p0(i64 16, ptr %3) #11
  %7 = getelementptr inbounds nuw %struct.timespec, ptr %3, i32 0, i32 0
  store i64 0, ptr %7, align 8, !tbaa !49
  %8 = getelementptr inbounds nuw %struct.timespec, ptr %3, i32 0, i32 1
  store i64 10000000, ptr %8, align 8, !tbaa !51
  call void @llvm.lifetime.start.p0(i64 8, ptr %4) #11
  %9 = load ptr, ptr %2, align 8, !tbaa !28
  store ptr %9, ptr %4, align 8, !tbaa !52
  br label %10

10:                                               ; preds = %27, %1
  br label %11

11:                                               ; preds = %10
  br label %12

12:                                               ; preds = %19, %11
  %13 = load ptr, ptr %4, align 8, !tbaa !52
  %14 = getelementptr inbounds nuw %struct.Par_ScorrThData_t_, ptr %13, i32 0, i32 5
  %15 = load atomic i8, ptr %14 acquire, align 8
  store i8 %15, ptr %5, align 1
  %16 = load i8, ptr %5, align 1, !tbaa !54, !range !56, !noundef !57
  %17 = trunc i8 %16 to i1
  %18 = xor i1 %17, true
  br i1 %18, label %19, label %21

19:                                               ; preds = %12
  %20 = call i32 @nanosleep(ptr noundef %3, ptr noundef null)
  br label %12, !llvm.loop !58

21:                                               ; preds = %12
  %22 = load ptr, ptr %4, align 8, !tbaa !52
  %23 = getelementptr inbounds nuw %struct.Par_ScorrThData_t_, ptr %22, i32 0, i32 1
  %24 = load ptr, ptr %23, align 8, !tbaa !59
  %25 = icmp eq ptr %24, null
  br i1 %25, label %26, label %27

26:                                               ; preds = %21
  call void @pthread_exit(ptr noundef null) #12
  unreachable

27:                                               ; preds = %21
  %28 = load ptr, ptr %4, align 8, !tbaa !52
  %29 = getelementptr inbounds nuw %struct.Par_ScorrThData_t_, ptr %28, i32 0, i32 1
  %30 = load ptr, ptr %29, align 8, !tbaa !59
  %31 = load ptr, ptr %4, align 8, !tbaa !52
  %32 = getelementptr inbounds nuw %struct.Par_ScorrThData_t_, ptr %31, i32 0, i32 0
  %33 = call i32 @Cec_ManLSCorrespondenceClasses(ptr noundef %30, ptr noundef %32)
  %34 = load ptr, ptr %4, align 8, !tbaa !52
  %35 = getelementptr inbounds nuw %struct.Par_ScorrThData_t_, ptr %34, i32 0, i32 5
  store i8 0, ptr %6, align 1, !tbaa !54
  %36 = load i8, ptr %6, align 1
  store atomic i8 %36, ptr %35 release, align 8
  br label %10
}