; Function Attrs: noreturn nounwind uwtable
define noalias noundef nonnull ptr @Ssw_GiaWorkerThread(ptr noundef %0) #3 {
  %2 = alloca %struct.timespec, align 8
  call void @llvm.lifetime.start.p0(i64 16, ptr nonnull %2) #15
  store i64 0, ptr %2, align 8, !tbaa !43
  %3 = getelementptr inbounds nuw i8, ptr %2, i64 8
  store i64 10000000, ptr %3, align 8, !tbaa !45
  %4 = getelementptr inbounds nuw i8, ptr %0, i64 96
  %5 = getelementptr inbounds nuw i8, ptr %0, i64 120
  br label %6

6:                                                ; preds = %15, %1
  %7 = load atomic i8, ptr %5 acquire, align 8
  %8 = trunc i8 %7 to i1
  br i1 %8, label %._crit_edge, label %.lr.ph

.lr.ph:                                           ; preds = %6, %.lr.ph
  %9 = call i32 @nanosleep(ptr noundef nonnull %2, ptr noundef null) #15
  %10 = load atomic i8, ptr %5 acquire, align 8
  %11 = trunc i8 %10 to i1
  br i1 %11, label %._crit_edge, label %.lr.ph, !llvm.loop !46

._crit_edge:                                      ; preds = %.lr.ph, %6
  %12 = load ptr, ptr %4, align 8, !tbaa !47
  %13 = icmp eq ptr %12, null
  br i1 %13, label %14, label %15

14:                                               ; preds = %._crit_edge
  call void @pthread_exit(ptr noundef null) #16
  unreachable

15:                                               ; preds = %._crit_edge
  %16 = call i32 @Cec_ManLSCorrespondenceClasses(ptr noundef nonnull %12, ptr noundef nonnull %0) #15
  store atomic i8 0, ptr %5 release, align 8
  br label %6
}